; Function Attrs: mustprogress uwtable
define hidden noundef zeroext i1 @_ZN6spacer15pob_concretizer5applyERK10ref_vectorI4expr11ast_managerERS4_(ptr noundef nonnull align 8 dereferenceable(184) %this, ptr nocapture noundef nonnull readonly align 8 dereferenceable(16) %cube, ptr noundef nonnull align 8 dereferenceable(16) %out) local_unnamed_addr #3 align 2 {
entry:
  tail call void @_ZN6spacer15pob_concretizer17mark_pattern_varsEv(ptr noundef nonnull align 8 dereferenceable(184) %this)
  %m_nodes.i = getelementptr inbounds i8, ptr %cube, i64 8
  %0 = load ptr, ptr %m_nodes.i, align 8
  %cmp.i.i.i = icmp eq ptr %0, null
  br i1 %cmp.i.i.i, label %for.end, label %_ZNK15ref_vector_coreI4expr19ref_manager_wrapperIS0_11ast_managerEE3endEv.exit

_ZNK15ref_vector_coreI4expr19ref_manager_wrapperIS0_11ast_managerEE3endEv.exit: ; preds = %entry
  %arrayidx.i.i.i = getelementptr inbounds i8, ptr %0, i64 -4
  %1 = load i32, ptr %arrayidx.i.i.i, align 4
  %2 = zext i32 %1 to i64
  %add.ptr.i = getelementptr inbounds ptr, ptr %0, i64 %2
  %cmp.not5 = icmp eq i32 %1, 0
  br i1 %cmp.not5, label %for.end, label %for.body

for.body:                                         ; preds = %_ZNK15ref_vector_coreI4expr19ref_manager_wrapperIS0_11ast_managerEE3endEv.exit, %for.body
  %__begin1.06 = phi ptr [ %incdec.ptr, %for.body ], [ %0, %_ZNK15ref_vector_coreI4expr19ref_manager_wrapperIS0_11ast_managerEE3endEv.exit ]
  %3 = load ptr, ptr %__begin1.06, align 8
  %call3 = tail call noundef zeroext i1 @_ZN6spacer15pob_concretizer9apply_litEP4exprR10ref_vectorIS1_11ast_managerE(ptr noundef nonnull align 8 dereferenceable(184) %this, ptr noundef %3, ptr noundef nonnull align 8 dereferenceable(16) %out)
  %incdec.ptr = getelementptr inbounds i8, ptr %__begin1.06, i64 8
  %cmp.not = icmp eq ptr %incdec.ptr, %add.ptr.i
  br i1 %cmp.not, label %for.end, label %for.body

for.end:                                          ; preds = %for.body, %entry, %_ZNK15ref_vector_coreI4expr19ref_manager_wrapperIS0_11ast_managerEE3endEv.exit
  %m_var_marks4 = getelementptr inbounds i8, ptr %this, i64 40
  %4 = load ptr, ptr %m_var_marks4, align 8
  %m_pos.i.i.i = getelementptr inbounds i8, ptr %this, i64 48
  %5 = load i32, ptr %m_pos.i.i.i, align 8
  %idx.ext.i.i = zext i32 %5 to i64
  %add.ptr.i.i = getelementptr inbounds ptr, ptr %4, i64 %idx.ext.i.i
  %cmp.not4.i = icmp eq i32 %5, 0
  br i1 %cmp.not4.i, label %_ZN13ast_fast_markILj2EE5resetEv.exit, label %for.body.i

for.body.i:                                       ; preds = %for.end, %for.body.i
  %__begin2.05.i = phi ptr [ %incdec.ptr.i, %for.body.i ], [ %4, %for.end ]
  %6 = load ptr, ptr %__begin2.05.i, align 8
  %m_mark2.i.i.i = getelementptr inbounds i8, ptr %6, i64 4
  %bf.load.i.i.i = load i32, ptr %m_mark2.i.i.i, align 4
  %bf.clear.i.i.i = and i32 %bf.load.i.i.i, -131073
  store i32 %bf.clear.i.i.i, ptr %m_mark2.i.i.i, align 4
  %incdec.ptr.i = getelementptr inbounds i8, ptr %__begin2.05.i, i64 8
  %cmp.not.i = icmp eq ptr %incdec.ptr.i, %add.ptr.i.i
  br i1 %cmp.not.i, label %_ZN13ast_fast_markILj2EE5resetEv.exit, label %for.body.i

_ZN13ast_fast_markILj2EE5resetEv.exit:            ; preds = %for.body.i, %for.end
  store i32 0, ptr %m_pos.i.i.i, align 8
  ret i1 true
}